; Function Attrs: mustprogress uwtable
define void @_ZN40MLRenderingUserDefinedGeneralColorActionC2EPS_P7QObject(ptr noundef nonnull align 8 dereferenceable(20) %0, ptr noundef nonnull %1, ptr noundef %2) unnamed_addr #9 align 2 personality ptr @__gxx_personality_v0 {
  %4 = alloca i8, align 1
  %5 = alloca %class.QVariant, align 8
  call void @llvm.lifetime.start.p0(i64 1, ptr nonnull %4)
  call void @llvm.lifetime.start.p0(i64 16, ptr nonnull %5)
  store i8 0, ptr %4, align 1
  call void @_ZNK7QAction4dataEv(ptr dead_on_unwind nonnull writable sret(%class.QVariant) align 8 %5, ptr noundef nonnull align 8 dereferenceable(16) %1)
  %6 = invoke noundef i32 @_ZNK8QVariant5toIntEPb(ptr noundef nonnull align 8 dereferenceable(16) %5, ptr noundef nonnull %4)
          to label %_ZNK17MLRenderingAction6meshIdEv.exit unwind label %7

7:                                                ; preds = %3
  %8 = landingpad { ptr, i32 }
          cleanup
  call void @_ZN8QVariantD1Ev(ptr noundef nonnull align 8 dereferenceable(16) %5) #21
  resume { ptr, i32 } %8

_ZNK17MLRenderingAction6meshIdEv.exit:            ; preds = %3
  call void @_ZN8QVariantD1Ev(ptr noundef nonnull align 8 dereferenceable(16) %5) #21
  call void @llvm.lifetime.end.p0(i64 1, ptr nonnull %4)
  call void @llvm.lifetime.end.p0(i64 16, ptr nonnull %5)
  call void @_ZN17MLRenderingActionC2EiP7QObject(ptr noundef nonnull align 8 dereferenceable(16) %0, i32 noundef %6, ptr noundef %2)
  store ptr getelementptr inbounds ({ [20 x ptr] }, ptr @_ZTV40MLRenderingUserDefinedGeneralColorAction, i64 0, i32 0, i64 2), ptr %0, align 8
  %9 = getelementptr inbounds i8, ptr %1, i64 16
  %10 = getelementptr inbounds i8, ptr %0, i64 16
  %11 = load i32, ptr %9, align 1
  store i32 %11, ptr %10, align 8
  ret void
}